target datalayout = "e-m:e-p270:32:32-p271:32:32-p272:64:64-i64:64-i128:128-f80:128-n8:16:32:64-S128"
target triple = "x86_64-pc-linux-gnu"

%"class.llvm::ArrayRef" = type { ptr, i64 }

; Function Attrs: mustprogress nounwind uwtable
define linkonce_odr hidden noundef nonnull align 1 dereferenceable(1) ptr @_ZNK4llvm8ArrayRefIcEixEm(ptr noundef nonnull align 8 dereferenceable(16) %0, i64 noundef %1) #0 comdat align 2 {
  %3 = alloca ptr, align 8
  %4 = alloca i64, align 8
  store ptr %0, ptr %3, align 8
  store i64 %1, ptr %4, align 8
  %5 = load ptr, ptr %3, align 8
  %6 = getelementptr inbounds nuw %"class.llvm::ArrayRef", ptr %5, i32 0, i32 0
  %7 = load ptr, ptr %6, align 8
  %8 = load i64, ptr %4, align 8
  %9 = getelementptr inbounds i8, ptr %7, i64 %8
  ret ptr %9
}

; Function Attrs: mustprogress nounwind uwtable
define linkonce_odr hidden noundef i64 @_ZNK4llvm8ArrayRefIcE4sizeEv(ptr noundef nonnull align 8 dereferenceable(16) %0) #0 comdat align 2 {
  %2 = alloca ptr, align 8
  store ptr %0, ptr %2, align 8
  %3 = load ptr, ptr %2, align 8
  %4 = getelementptr inbounds nuw %"class.llvm::ArrayRef", ptr %3, i32 0, i32 1
  %5 = load i64, ptr %4, align 8
  ret i64 %5
}

; Function Attrs: mustprogress nounwind uwtable
define dso_local noundef zeroext i1 @_ZN4llvm21hasUTF16ByteOrderMarkENS_8ArrayRefIcEE(ptr %0, i64 %1) #0 {
  %3 = alloca %"class.llvm::ArrayRef", align 8
  %4 = getelementptr inbounds nuw { ptr, i64 }, ptr %3, i32 0, i32 0
  store ptr %0, ptr %4, align 8
  %5 = getelementptr inbounds nuw { ptr, i64 }, ptr %3, i32 0, i32 1
  store i64 %1, ptr %5, align 8
  %6 = call noundef i64 @_ZNK4llvm8ArrayRefIcE4sizeEv(ptr noundef nonnull align 8 dereferenceable(16) %3)
  %7 = icmp uge i64 %6, 2
  br i1 %7, label %8, label %32

8:                                                ; preds = %2
  %9 = call noundef nonnull align 1 dereferenceable(1) ptr @_ZNK4llvm8ArrayRefIcEixEm(ptr noundef nonnull align 8 dereferenceable(16) %3, i64 noundef 0)
  %10 = load i8, ptr %9, align 1
  %11 = sext i8 %10 to i32
  %12 = icmp eq i32 %11, -1
  br i1 %12, label %13, label %18

13:                                               ; preds = %8
  %14 = call noundef nonnull align 1 dereferenceable(1) ptr @_ZNK4llvm8ArrayRefIcEixEm(ptr noundef nonnull align 8 dereferenceable(16) %3, i64 noundef 1)
  %15 = load i8, ptr %14, align 1
  %16 = sext i8 %15 to i32
  %17 = icmp eq i32 %16, -2
  br i1 %17, label %30, label %18

18:                                               ; preds = %13, %8
  %19 = call noundef nonnull align 1 dereferenceable(1) ptr @_ZNK4llvm8ArrayRefIcEixEm(ptr noundef nonnull align 8 dereferenceable(16) %3, i64 noundef 0)
  %20 = load i8, ptr %19, align 1
  %21 = sext i8 %20 to i32
  %22 = icmp eq i32 %21, -2
  br i1 %22, label %23, label %28

23:                                               ; preds = %18
  %24 = call noundef nonnull align 1 dereferenceable(1) ptr @_ZNK4llvm8ArrayRefIcEixEm(ptr noundef nonnull align 8 dereferenceable(16) %3, i64 noundef 1)
  %25 = load i8, ptr %24, align 1
  %26 = sext i8 %25 to i32
  %27 = icmp eq i32 %26, -1
  br label %28

28:                                               ; preds = %23, %18
  %29 = phi i1 [ false, %18 ], [ %27, %23 ]
  br label %30

30:                                               ; preds = %28, %13
  %31 = phi i1 [ true, %13 ], [ %29, %28 ]
  br label %32

32:                                               ; preds = %30, %2
  %33 = phi i1 [ false, %2 ], [ %31, %30 ]
  ret i1 %33
}