; Function Attrs: mustprogress nofree norecurse nosync nounwind willreturn memory(argmem: read) uwtable
define dso_local noundef zeroext i1 @_ZN4llvm21hasUTF16ByteOrderMarkENS_8ArrayRefIcEE(ptr nocapture readonly %0, i64 %1) local_unnamed_addr #3 {
  %3 = icmp ugt i64 %1, 1
  br i1 %3, label %4, label %.thread

4:                                                ; preds = %2
  %5 = load i8, ptr %0, align 1
  switch i8 %5, label %.thread [
    i8 -1, label %.thread.sink.split
    i8 -2, label %6
  ]

6:                                                ; preds = %4
  br label %.thread.sink.split

.thread.sink.split:                               ; preds = %4, %6
  %.sink4 = phi i8 [ -1, %6 ], [ -2, %4 ]
  %7 = getelementptr inbounds i8, ptr %0, i64 1
  %8 = load i8, ptr %7, align 1
  %9 = icmp eq i8 %8, %.sink4
  br label %.thread

.thread:                                          ; preds = %.thread.sink.split, %4, %2
  %10 = phi i1 [ false, %2 ], [ false, %4 ], [ %9, %.thread.sink.split ]
  ret i1 %10
}